target datalayout = "e-m:e-p270:32:32-p271:32:32-p272:64:64-i64:64-i128:128-f80:128-n8:16:32:64-S128"
target triple = "x86_64-pc-linux-gnu"

%"class.Imf_3_4::TileOffsets" = type { i32, i32, i32, %"class.std::vector" }
%"class.std::vector" = type { %"struct.std::_Vector_base" }
%"struct.std::_Vector_base" = type { %"struct.std::_Vector_base<std::vector<std::vector<unsigned long>>, std::allocator<std::vector<std::vector<unsigned long>>>>::_Vector_impl" }
%"struct.std::_Vector_base<std::vector<std::vector<unsigned long>>, std::allocator<std::vector<std::vector<unsigned long>>>>::_Vector_impl" = type { %"struct.std::_Vector_base<std::vector<std::vector<unsigned long>>, std::allocator<std::vector<std::vector<unsigned long>>>>::_Vector_impl_data" }
%"struct.std::_Vector_base<std::vector<std::vector<unsigned long>>, std::allocator<std::vector<std::vector<unsigned long>>>>::_Vector_impl_data" = type { ptr, ptr, ptr }
%"class.std::vector.0" = type { %"struct.std::_Vector_base.1" }
%"struct.std::_Vector_base.1" = type { %"struct.std::_Vector_base<std::vector<unsigned long>, std::allocator<std::vector<unsigned long>>>::_Vector_impl" }
%"struct.std::_Vector_base<std::vector<unsigned long>, std::allocator<std::vector<unsigned long>>>::_Vector_impl" = type { %"struct.std::_Vector_base<std::vector<unsigned long>, std::allocator<std::vector<unsigned long>>>::_Vector_impl_data" }
%"struct.std::_Vector_base<std::vector<unsigned long>, std::allocator<std::vector<unsigned long>>>::_Vector_impl_data" = type { ptr, ptr, ptr }
%"class.std::vector.5" = type { %"struct.std::_Vector_base.6" }
%"struct.std::_Vector_base.6" = type { %"struct.std::_Vector_base<unsigned long, std::allocator<unsigned long>>::_Vector_impl" }
%"struct.std::_Vector_base<unsigned long, std::allocator<unsigned long>>::_Vector_impl" = type { %"struct.std::_Vector_base<unsigned long, std::allocator<unsigned long>>::_Vector_impl_data" }
%"struct.std::_Vector_base<unsigned long, std::allocator<unsigned long>>::_Vector_impl_data" = type { ptr, ptr, ptr }

; Function Attrs: mustprogress nounwind uwtable
define linkonce_odr hidden noundef i64 @_ZNKSt6vectorImSaImEE4sizeEv(ptr noundef nonnull align 8 dereferenceable(24) %0) #5 comdat align 2 {
  %2 = alloca ptr, align 8
  store ptr %0, ptr %2, align 8, !tbaa !40
  %3 = load ptr, ptr %2, align 8
  %4 = getelementptr inbounds nuw %"struct.std::_Vector_base.6", ptr %3, i32 0, i32 0
  %5 = getelementptr inbounds nuw %"struct.std::_Vector_base<unsigned long, std::allocator<unsigned long>>::_Vector_impl_data", ptr %4, i32 0, i32 1
  %6 = load ptr, ptr %5, align 8, !tbaa !47
  %7 = getelementptr inbounds nuw %"struct.std::_Vector_base.6", ptr %3, i32 0, i32 0
  %8 = getelementptr inbounds nuw %"struct.std::_Vector_base<unsigned long, std::allocator<unsigned long>>::_Vector_impl_data", ptr %7, i32 0, i32 0
  %9 = load ptr, ptr %8, align 8, !tbaa !41
  %10 = ptrtoint ptr %6 to i64
  %11 = ptrtoint ptr %9 to i64
  %12 = sub i64 %10, %11
  %13 = sdiv exact i64 %12, 8
  ret i64 %13
}

; Function Attrs: mustprogress nounwind uwtable
define linkonce_odr hidden noundef nonnull align 8 dereferenceable(24) ptr @_ZNKSt6vectorIS_ImSaImEESaIS1_EEixEm(ptr noundef nonnull align 8 dereferenceable(24) %0, i64 noundef %1) #5 comdat align 2 {
  %3 = alloca ptr, align 8
  %4 = alloca i64, align 8
  store ptr %0, ptr %3, align 8, !tbaa !35
  store i64 %1, ptr %4, align 8, !tbaa !26
  %5 = load ptr, ptr %3, align 8
  %6 = getelementptr inbounds nuw %"struct.std::_Vector_base.1", ptr %5, i32 0, i32 0
  %7 = getelementptr inbounds nuw %"struct.std::_Vector_base<std::vector<unsigned long>, std::allocator<std::vector<unsigned long>>>::_Vector_impl_data", ptr %6, i32 0, i32 0
  %8 = load ptr, ptr %7, align 8, !tbaa !36
  %9 = load i64, ptr %4, align 8, !tbaa !26
  %10 = getelementptr inbounds nuw %"class.std::vector.5", ptr %8, i64 %9
  ret ptr %10
}

; Function Attrs: mustprogress nounwind uwtable
define linkonce_odr hidden noundef i64 @_ZNKSt6vectorIS_ImSaImEESaIS1_EE4sizeEv(ptr noundef nonnull align 8 dereferenceable(24) %0) #5 comdat align 2 {
  %2 = alloca ptr, align 8
  store ptr %0, ptr %2, align 8, !tbaa !35
  %3 = load ptr, ptr %2, align 8
  %4 = getelementptr inbounds nuw %"struct.std::_Vector_base.1", ptr %3, i32 0, i32 0
  %5 = getelementptr inbounds nuw %"struct.std::_Vector_base<std::vector<unsigned long>, std::allocator<std::vector<unsigned long>>>::_Vector_impl_data", ptr %4, i32 0, i32 1
  %6 = load ptr, ptr %5, align 8, !tbaa !39
  %7 = getelementptr inbounds nuw %"struct.std::_Vector_base.1", ptr %3, i32 0, i32 0
  %8 = getelementptr inbounds nuw %"struct.std::_Vector_base<std::vector<unsigned long>, std::allocator<std::vector<unsigned long>>>::_Vector_impl_data", ptr %7, i32 0, i32 0
  %9 = load ptr, ptr %8, align 8, !tbaa !36
  %10 = ptrtoint ptr %6 to i64
  %11 = ptrtoint ptr %9 to i64
  %12 = sub i64 %10, %11
  %13 = sdiv exact i64 %12, 24
  ret i64 %13
}

; Function Attrs: mustprogress nounwind uwtable
define linkonce_odr hidden noundef nonnull align 8 dereferenceable(24) ptr @_ZNKSt6vectorIS_IS_ImSaImEESaIS1_EESaIS3_EEixEm(ptr noundef nonnull align 8 dereferenceable(24) %0, i64 noundef %1) #5 comdat align 2 {
  %3 = alloca ptr, align 8
  %4 = alloca i64, align 8
  store ptr %0, ptr %3, align 8, !tbaa !31
  store i64 %1, ptr %4, align 8, !tbaa !26
  %5 = load ptr, ptr %3, align 8
  %6 = getelementptr inbounds nuw %"struct.std::_Vector_base", ptr %5, i32 0, i32 0
  %7 = getelementptr inbounds nuw %"struct.std::_Vector_base<std::vector<std::vector<unsigned long>>, std::allocator<std::vector<std::vector<unsigned long>>>>::_Vector_impl_data", ptr %6, i32 0, i32 0
  %8 = load ptr, ptr %7, align 8, !tbaa !33
  %9 = load i64, ptr %4, align 8, !tbaa !26
  %10 = getelementptr inbounds nuw %"class.std::vector.0", ptr %8, i64 %9
  ret ptr %10
}

; Function Attrs: mustprogress nounwind uwtable
define linkonce_odr hidden noundef i64 @_ZNKSt6vectorIS_IS_ImSaImEESaIS1_EESaIS3_EE4sizeEv(ptr noundef nonnull align 8 dereferenceable(24) %0) #5 comdat align 2 {
  %2 = alloca ptr, align 8
  store ptr %0, ptr %2, align 8, !tbaa !31
  %3 = load ptr, ptr %2, align 8
  %4 = getelementptr inbounds nuw %"struct.std::_Vector_base", ptr %3, i32 0, i32 0
  %5 = getelementptr inbounds nuw %"struct.std::_Vector_base<std::vector<std::vector<unsigned long>>, std::allocator<std::vector<std::vector<unsigned long>>>>::_Vector_impl_data", ptr %4, i32 0, i32 1
  %6 = load ptr, ptr %5, align 8, !tbaa !34
  %7 = getelementptr inbounds nuw %"struct.std::_Vector_base", ptr %3, i32 0, i32 0
  %8 = getelementptr inbounds nuw %"struct.std::_Vector_base<std::vector<std::vector<unsigned long>>, std::allocator<std::vector<std::vector<unsigned long>>>>::_Vector_impl_data", ptr %7, i32 0, i32 0
  %9 = load ptr, ptr %8, align 8, !tbaa !33
  %10 = ptrtoint ptr %6 to i64
  %11 = ptrtoint ptr %9 to i64
  %12 = sub i64 %10, %11
  %13 = sdiv exact i64 %12, 24
  ret i64 %13
}

; Function Attrs: mustprogress nounwind uwtable
define noundef zeroext i1 @_ZNK7Imf_3_411TileOffsets11isValidTileEiiii(ptr noundef nonnull align 8 dereferenceable(40) %0, i32 noundef %1, i32 noundef %2, i32 noundef %3, i32 noundef %4) #5 align 2 {
  %6 = alloca i1, align 1
  %7 = alloca ptr, align 8
  %8 = alloca i32, align 4
  %9 = alloca i32, align 4
  %10 = alloca i32, align 4
  %11 = alloca i32, align 4
  store ptr %0, ptr %7, align 8, !tbaa !3
  store i32 %1, ptr %8, align 4, !tbaa !10
  store i32 %2, ptr %9, align 4, !tbaa !10
  store i32 %3, ptr %10, align 4, !tbaa !10
  store i32 %4, ptr %11, align 4, !tbaa !10
  %12 = load ptr, ptr %7, align 8
  %13 = load i32, ptr %10, align 4, !tbaa !10
  %14 = icmp slt i32 %13, 0
  br i1 %14, label %24, label %15

15:                                               ; preds = %5
  %16 = load i32, ptr %11, align 4, !tbaa !10
  %17 = icmp slt i32 %16, 0
  br i1 %17, label %24, label %18

18:                                               ; preds = %15
  %19 = load i32, ptr %8, align 4, !tbaa !10
  %20 = icmp slt i32 %19, 0
  br i1 %20, label %24, label %21

21:                                               ; preds = %18
  %22 = load i32, ptr %9, align 4, !tbaa !10
  %23 = icmp slt i32 %22, 0
  br i1 %23, label %24, label %25

24:                                               ; preds = %21, %18, %15, %5
  store i1 false, ptr %6, align 1
  br label %154

25:                                               ; preds = %21
  %26 = getelementptr inbounds nuw %"class.Imf_3_4::TileOffsets", ptr %12, i32 0, i32 0
  %27 = load i32, ptr %26, align 8, !tbaa !14
  switch i32 %27, label %152 [
    i32 0, label %28
    i32 1, label %57
    i32 2, label %96
  ]

28:                                               ; preds = %25
  %29 = load i32, ptr %10, align 4, !tbaa !10
  %30 = icmp eq i32 %29, 0
  br i1 %30, label %31, label %56

31:                                               ; preds = %28
  %32 = load i32, ptr %11, align 4, !tbaa !10
  %33 = icmp eq i32 %32, 0
  br i1 %33, label %34, label %56

34:                                               ; preds = %31
  %35 = getelementptr inbounds nuw %"class.Imf_3_4::TileOffsets", ptr %12, i32 0, i32 3
  %36 = call noundef i64 @_ZNKSt6vectorIS_IS_ImSaImEESaIS1_EESaIS3_EE4sizeEv(ptr noundef nonnull align 8 dereferenceable(24) %35) #3
  %37 = icmp ugt i64 %36, 0
  br i1 %37, label %38, label %56

38:                                               ; preds = %34
  %39 = getelementptr inbounds nuw %"class.Imf_3_4::TileOffsets", ptr %12, i32 0, i32 3
  %40 = call noundef nonnull align 8 dereferenceable(24) ptr @_ZNKSt6vectorIS_IS_ImSaImEESaIS1_EESaIS3_EEixEm(ptr noundef nonnull align 8 dereferenceable(24) %39, i64 noundef 0) #3
  %41 = call noundef i64 @_ZNKSt6vectorIS_ImSaImEESaIS1_EE4sizeEv(ptr noundef nonnull align 8 dereferenceable(24) %40) #3
  %42 = trunc i64 %41 to i32
  %43 = load i32, ptr %9, align 4, !tbaa !10
  %44 = icmp sgt i32 %42, %43
  br i1 %44, label %45, label %56

45:                                               ; preds = %38
  %46 = getelementptr inbounds nuw %"class.Imf_3_4::TileOffsets", ptr %12, i32 0, i32 3
  %47 = call noundef nonnull align 8 dereferenceable(24) ptr @_ZNKSt6vectorIS_IS_ImSaImEESaIS1_EESaIS3_EEixEm(ptr noundef nonnull align 8 dereferenceable(24) %46, i64 noundef 0) #3
  %48 = load i32, ptr %9, align 4, !tbaa !10
  %49 = sext i32 %48 to i64
  %50 = call noundef nonnull align 8 dereferenceable(24) ptr @_ZNKSt6vectorIS_ImSaImEESaIS1_EEixEm(ptr noundef nonnull align 8 dereferenceable(24) %47, i64 noundef %49) #3
  %51 = call noundef i64 @_ZNKSt6vectorImSaImEE4sizeEv(ptr noundef nonnull align 8 dereferenceable(24) %50) #3
  %52 = trunc i64 %51 to i32
  %53 = load i32, ptr %8, align 4, !tbaa !10
  %54 = icmp sgt i32 %52, %53
  br i1 %54, label %55, label %56

55:                                               ; preds = %45
  store i1 true, ptr %6, align 1
  br label %154

56:                                               ; preds = %45, %38, %34, %31, %28
  br label %153

57:                                               ; preds = %25
  %58 = load i32, ptr %10, align 4, !tbaa !10
  %59 = getelementptr inbounds nuw %"class.Imf_3_4::TileOffsets", ptr %12, i32 0, i32 1
  %60 = load i32, ptr %59, align 4, !tbaa !21
  %61 = icmp slt i32 %58, %60
  br i1 %61, label %62, label %95

62:                                               ; preds = %57
  %63 = load i32, ptr %11, align 4, !tbaa !10
  %64 = getelementptr inbounds nuw %"class.Imf_3_4::TileOffsets", ptr %12, i32 0, i32 2
  %65 = load i32, ptr %64, align 8, !tbaa !22
  %66 = icmp slt i32 %63, %65
  br i1 %66, label %67, label %95

67:                                               ; preds = %62
  %68 = getelementptr inbounds nuw %"class.Imf_3_4::TileOffsets", ptr %12, i32 0, i32 3
  %69 = call noundef i64 @_ZNKSt6vectorIS_IS_ImSaImEESaIS1_EESaIS3_EE4sizeEv(ptr noundef nonnull align 8 dereferenceable(24) %68) #3
  %70 = trunc i64 %69 to i32
  %71 = load i32, ptr %10, align 4, !tbaa !10
  %72 = icmp sgt i32 %70, %71
  br i1 %72, label %73, label %95

73:                                               ; preds = %67
  %74 = getelementptr inbounds nuw %"class.Imf_3_4::TileOffsets", ptr %12, i32 0, i32 3
  %75 = load i32, ptr %10, align 4, !tbaa !10
  %76 = sext i32 %75 to i64
  %77 = call noundef nonnull align 8 dereferenceable(24) ptr @_ZNKSt6vectorIS_IS_ImSaImEESaIS1_EESaIS3_EEixEm(ptr noundef nonnull align 8 dereferenceable(24) %74, i64 noundef %76) #3
  %78 = call noundef i64 @_ZNKSt6vectorIS_ImSaImEESaIS1_EE4sizeEv(ptr noundef nonnull align 8 dereferenceable(24) %77) #3
  %79 = trunc i64 %78 to i32
  %80 = load i32, ptr %9, align 4, !tbaa !10
  %81 = icmp sgt i32 %79, %80
  br i1 %81, label %82, label %95

82:                                               ; preds = %73
  %83 = getelementptr inbounds nuw %"class.Imf_3_4::TileOffsets", ptr %12, i32 0, i32 3
  %84 = load i32, ptr %10, align 4, !tbaa !10
  %85 = sext i32 %84 to i64
  %86 = call noundef nonnull align 8 dereferenceable(24) ptr @_ZNKSt6vectorIS_IS_ImSaImEESaIS1_EESaIS3_EEixEm(ptr noundef nonnull align 8 dereferenceable(24) %83, i64 noundef %85) #3
  %87 = load i32, ptr %9, align 4, !tbaa !10
  %88 = sext i32 %87 to i64
  %89 = call noundef nonnull align 8 dereferenceable(24) ptr @_ZNKSt6vectorIS_ImSaImEESaIS1_EEixEm(ptr noundef nonnull align 8 dereferenceable(24) %86, i64 noundef %88) #3
  %90 = call noundef i64 @_ZNKSt6vectorImSaImEE4sizeEv(ptr noundef nonnull align 8 dereferenceable(24) %89) #3
  %91 = trunc i64 %90 to i32
  %92 = load i32, ptr %8, align 4, !tbaa !10
  %93 = icmp sgt i32 %91, %92
  br i1 %93, label %94, label %95

94:                                               ; preds = %82
  store i1 true, ptr %6, align 1
  br label %154

95:                                               ; preds = %82, %73, %67, %62, %57
  br label %153

96:                                               ; preds = %25
  %97 = load i32, ptr %10, align 4, !tbaa !10
  %98 = getelementptr inbounds nuw %"class.Imf_3_4::TileOffsets", ptr %12, i32 0, i32 1
  %99 = load i32, ptr %98, align 4, !tbaa !21
  %100 = icmp slt i32 %97, %99
  br i1 %100, label %101, label %151

101:                                              ; preds = %96
  %102 = load i32, ptr %11, align 4, !tbaa !10
  %103 = getelementptr inbounds nuw %"class.Imf_3_4::TileOffsets", ptr %12, i32 0, i32 2
  %104 = load i32, ptr %103, align 8, !tbaa !22
  %105 = icmp slt i32 %102, %104
  br i1 %105, label %106, label %151

106:                                              ; preds = %101
  %107 = getelementptr inbounds nuw %"class.Imf_3_4::TileOffsets", ptr %12, i32 0, i32 3
  %108 = call noundef i64 @_ZNKSt6vectorIS_IS_ImSaImEESaIS1_EESaIS3_EE4sizeEv(ptr noundef nonnull align 8 dereferenceable(24) %107) #3
  %109 = load i32, ptr %10, align 4, !tbaa !10
  %110 = sext i32 %109 to i64
  %111 = load i32, ptr %11, align 4, !tbaa !10
  %112 = sext i32 %111 to i64
  %113 = getelementptr inbounds nuw %"class.Imf_3_4::TileOffsets", ptr %12, i32 0, i32 1
  %114 = load i32, ptr %113, align 4, !tbaa !21
  %115 = sext i32 %114 to i64
  %116 = mul i64 %112, %115
  %117 = add i64 %110, %116
  %118 = icmp ugt i64 %108, %117
  br i1 %118, label %119, label %151

119:                                              ; preds = %106
  %120 = getelementptr inbounds nuw %"class.Imf_3_4::TileOffsets", ptr %12, i32 0, i32 3
  %121 = load i32, ptr %10, align 4, !tbaa !10
  %122 = load i32, ptr %11, align 4, !tbaa !10
  %123 = getelementptr inbounds nuw %"class.Imf_3_4::TileOffsets", ptr %12, i32 0, i32 1
  %124 = load i32, ptr %123, align 4, !tbaa !21
  %125 = mul nsw i32 %122, %124
  %126 = add nsw i32 %121, %125
  %127 = sext i32 %126 to i64
  %128 = call noundef nonnull align 8 dereferenceable(24) ptr @_ZNKSt6vectorIS_IS_ImSaImEESaIS1_EESaIS3_EEixEm(ptr noundef nonnull align 8 dereferenceable(24) %120, i64 noundef %127) #3
  %129 = call noundef i64 @_ZNKSt6vectorIS_ImSaImEESaIS1_EE4sizeEv(ptr noundef nonnull align 8 dereferenceable(24) %128) #3
  %130 = trunc i64 %129 to i32
  %131 = load i32, ptr %9, align 4, !tbaa !10
  %132 = icmp sgt i32 %130, %131
  br i1 %132, label %133, label %151

133:                                              ; preds = %119
  %134 = getelementptr inbounds nuw %"class.Imf_3_4::TileOffsets", ptr %12, i32 0, i32 3
  %135 = load i32, ptr %10, align 4, !tbaa !10
  %136 = load i32, ptr %11, align 4, !tbaa !10
  %137 = getelementptr inbounds nuw %"class.Imf_3_4::TileOffsets", ptr %12, i32 0, i32 1
  %138 = load i32, ptr %137, align 4, !tbaa !21
  %139 = mul nsw i32 %136, %138
  %140 = add nsw i32 %135, %139
  %141 = sext i32 %140 to i64
  %142 = call noundef nonnull align 8 dereferenceable(24) ptr @_ZNKSt6vectorIS_IS_ImSaImEESaIS1_EESaIS3_EEixEm(ptr noundef nonnull align 8 dereferenceable(24) %134, i64 noundef %141) #3
  %143 = load i32, ptr %9, align 4, !tbaa !10
  %144 = sext i32 %143 to i64
  %145 = call noundef nonnull align 8 dereferenceable(24) ptr @_ZNKSt6vectorIS_ImSaImEESaIS1_EEixEm(ptr noundef nonnull align 8 dereferenceable(24) %142, i64 noundef %144) #3
  %146 = call noundef i64 @_ZNKSt6vectorImSaImEE4sizeEv(ptr noundef nonnull align 8 dereferenceable(24) %145) #3
  %147 = trunc i64 %146 to i32
  %148 = load i32, ptr %8, align 4, !tbaa !10
  %149 = icmp sgt i32 %147, %148
  br i1 %149, label %150, label %151

150:                                              ; preds = %133
  store i1 true, ptr %6, align 1
  br label %154

151:                                              ; preds = %133, %119, %106, %101, %96
  br label %153

152:                                              ; preds = %25
  store i1 false, ptr %6, align 1
  br label %154

153:                                              ; preds = %151, %95, %56
  store i1 false, ptr %6, align 1
  br label %154

154:                                              ; preds = %153, %152, %150, %94, %55, %24
  %155 = load i1, ptr %6, align 1
  ret i1 %155
}