; Function Attrs: mustprogress nofree norecurse nosync nounwind willreturn memory(read, inaccessiblemem: none) uwtable
define noundef zeroext i1 @_ZNK7Imf_3_411TileOffsets11isValidTileEiiii(ptr noundef nonnull readonly align 8 captures(none) dereferenceable(40) %0, i32 noundef %1, i32 noundef %2, i32 noundef %3, i32 noundef %4) local_unnamed_addr #7 align 2 {
  %6 = or i32 %4, %3
  %7 = or i32 %2, %1
  %8 = or i32 %7, %6
  %or.cond5.not = icmp sgt i32 %8, -1
  br i1 %or.cond5.not, label %9, label %130

9:                                                ; preds = %5
  %10 = load i32, ptr %0, align 8, !tbaa !3
  switch i32 %10, label %130 [
    i32 0, label %11
    i32 1, label %39
    i32 2, label %81
  ]

11:                                               ; preds = %9
  %or.cond7 = icmp eq i32 %6, 0
  br i1 %or.cond7, label %12, label %129

12:                                               ; preds = %11
  %13 = getelementptr inbounds nuw i8, ptr %0, i64 16
  %14 = getelementptr inbounds nuw i8, ptr %0, i64 24
  %15 = load ptr, ptr %14, align 8, !tbaa !17
  %16 = load ptr, ptr %13, align 8, !tbaa !18
  %.not = icmp eq ptr %15, %16
  br i1 %.not, label %129, label %17

17:                                               ; preds = %12
  %18 = getelementptr inbounds nuw i8, ptr %16, i64 8
  %19 = load ptr, ptr %18, align 8, !tbaa !20
  %20 = load ptr, ptr %16, align 8, !tbaa !23
  %21 = ptrtoint ptr %19 to i64
  %22 = ptrtoint ptr %20 to i64
  %23 = sub i64 %21, %22
  %24 = sdiv exact i64 %23, 24
  %25 = trunc i64 %24 to i32
  %26 = icmp slt i32 %2, %25
  br i1 %26, label %27, label %129

27:                                               ; preds = %17
  %28 = zext nneg i32 %2 to i64
  %29 = getelementptr inbounds nuw %"class.std::vector.5", ptr %20, i64 %28
  %30 = getelementptr inbounds nuw i8, ptr %29, i64 8
  %31 = load ptr, ptr %30, align 8, !tbaa !31
  %32 = load ptr, ptr %29, align 8, !tbaa !24
  %33 = ptrtoint ptr %31 to i64
  %34 = ptrtoint ptr %32 to i64
  %35 = sub i64 %33, %34
  %36 = lshr exact i64 %35, 3
  %37 = trunc i64 %36 to i32
  %38 = icmp slt i32 %1, %37
  br i1 %38, label %130, label %129

39:                                               ; preds = %9
  %40 = getelementptr inbounds nuw i8, ptr %0, i64 4
  %41 = load i32, ptr %40, align 4, !tbaa !15
  %42 = icmp slt i32 %3, %41
  %43 = getelementptr inbounds nuw i8, ptr %0, i64 8
  %44 = load i32, ptr %43, align 8
  %45 = icmp slt i32 %4, %44
  %or.cond = select i1 %42, i1 %45, i1 false
  br i1 %or.cond, label %46, label %129

46:                                               ; preds = %39
  %47 = getelementptr inbounds nuw i8, ptr %0, i64 16
  %48 = getelementptr inbounds nuw i8, ptr %0, i64 24
  %49 = load ptr, ptr %48, align 8, !tbaa !17
  %50 = load ptr, ptr %47, align 8, !tbaa !18
  %51 = ptrtoint ptr %49 to i64
  %52 = ptrtoint ptr %50 to i64
  %53 = sub i64 %51, %52
  %54 = sdiv exact i64 %53, 24
  %55 = trunc i64 %54 to i32
  %56 = icmp slt i32 %3, %55
  br i1 %56, label %57, label %129

57:                                               ; preds = %46
  %58 = zext nneg i32 %3 to i64
  %59 = getelementptr inbounds nuw %"class.std::vector.0", ptr %50, i64 %58
  %60 = getelementptr inbounds nuw i8, ptr %59, i64 8
  %61 = load ptr, ptr %60, align 8, !tbaa !20
  %62 = load ptr, ptr %59, align 8, !tbaa !23
  %63 = ptrtoint ptr %61 to i64
  %64 = ptrtoint ptr %62 to i64
  %65 = sub i64 %63, %64
  %66 = sdiv exact i64 %65, 24
  %67 = trunc i64 %66 to i32
  %68 = icmp slt i32 %2, %67
  br i1 %68, label %69, label %129

69:                                               ; preds = %57
  %70 = zext nneg i32 %2 to i64
  %71 = getelementptr inbounds nuw %"class.std::vector.5", ptr %62, i64 %70
  %72 = getelementptr inbounds nuw i8, ptr %71, i64 8
  %73 = load ptr, ptr %72, align 8, !tbaa !31
  %74 = load ptr, ptr %71, align 8, !tbaa !24
  %75 = ptrtoint ptr %73 to i64
  %76 = ptrtoint ptr %74 to i64
  %77 = sub i64 %75, %76
  %78 = lshr exact i64 %77, 3
  %79 = trunc i64 %78 to i32
  %80 = icmp slt i32 %1, %79
  br i1 %80, label %130, label %129

81:                                               ; preds = %9
  %82 = getelementptr inbounds nuw i8, ptr %0, i64 4
  %83 = load i32, ptr %82, align 4, !tbaa !15
  %84 = icmp slt i32 %3, %83
  %85 = getelementptr inbounds nuw i8, ptr %0, i64 8
  %86 = load i32, ptr %85, align 8
  %87 = icmp slt i32 %4, %86
  %or.cond44 = select i1 %84, i1 %87, i1 false
  br i1 %or.cond44, label %88, label %129

88:                                               ; preds = %81
  %89 = getelementptr inbounds nuw i8, ptr %0, i64 16
  %90 = getelementptr inbounds nuw i8, ptr %0, i64 24
  %91 = load ptr, ptr %90, align 8, !tbaa !17
  %92 = load ptr, ptr %89, align 8, !tbaa !18
  %93 = ptrtoint ptr %91 to i64
  %94 = ptrtoint ptr %92 to i64
  %95 = sub i64 %93, %94
  %96 = sdiv exact i64 %95, 24
  %97 = zext nneg i32 %3 to i64
  %98 = zext nneg i32 %4 to i64
  %99 = sext i32 %83 to i64
  %100 = mul nsw i64 %99, %98
  %101 = add nsw i64 %100, %97
  %102 = icmp ugt i64 %96, %101
  br i1 %102, label %103, label %129

103:                                              ; preds = %88
  %104 = mul nsw i32 %83, %4
  %105 = add nsw i32 %104, %3
  %106 = sext i32 %105 to i64
  %107 = getelementptr inbounds nuw %"class.std::vector.0", ptr %92, i64 %106
  %108 = getelementptr inbounds nuw i8, ptr %107, i64 8
  %109 = load ptr, ptr %108, align 8, !tbaa !20
  %110 = load ptr, ptr %107, align 8, !tbaa !23
  %111 = ptrtoint ptr %109 to i64
  %112 = ptrtoint ptr %110 to i64
  %113 = sub i64 %111, %112
  %114 = sdiv exact i64 %113, 24
  %115 = trunc i64 %114 to i32
  %116 = icmp slt i32 %2, %115
  br i1 %116, label %117, label %129

117:                                              ; preds = %103
  %118 = zext nneg i32 %2 to i64
  %119 = getelementptr inbounds nuw %"class.std::vector.5", ptr %110, i64 %118
  %120 = getelementptr inbounds nuw i8, ptr %119, i64 8
  %121 = load ptr, ptr %120, align 8, !tbaa !31
  %122 = load ptr, ptr %119, align 8, !tbaa !24
  %123 = ptrtoint ptr %121 to i64
  %124 = ptrtoint ptr %122 to i64
  %125 = sub i64 %123, %124
  %126 = lshr exact i64 %125, 3
  %127 = trunc i64 %126 to i32
  %128 = icmp slt i32 %1, %127
  br i1 %128, label %130, label %129

129:                                              ; preds = %81, %88, %103, %117, %39, %46, %57, %69, %11, %12, %17, %27
  br label %130

130:                                              ; preds = %9, %117, %69, %27, %5, %129
  %.0 = phi i1 [ false, %129 ], [ false, %5 ], [ true, %27 ], [ true, %69 ], [ true, %117 ], [ false, %9 ]
  ret i1 %.0
}